
Timer_Challenge2.elf:     file format elf32-avr

Sections:
Idx Name          Size      VMA       LMA       File off  Algn
  0 .text         0000017c  00000000  00000000  00000074  2**1
                  CONTENTS, ALLOC, LOAD, READONLY, CODE
  1 .bss          00000001  00800060  00800060  000001f0  2**0
                  ALLOC
  2 .stab         000003e4  00000000  00000000  000001f0  2**2
                  CONTENTS, READONLY, DEBUGGING
  3 .stabstr      000006b1  00000000  00000000  000005d4  2**0
                  CONTENTS, READONLY, DEBUGGING

Disassembly of section .text:

00000000 <__vectors>:
   0:	0c 94 2a 00 	jmp	0x54	; 0x54 <__ctors_end>
   4:	0c 94 3c 00 	jmp	0x78	; 0x78 <__bad_interrupt>
   8:	0c 94 3c 00 	jmp	0x78	; 0x78 <__bad_interrupt>
   c:	0c 94 3c 00 	jmp	0x78	; 0x78 <__bad_interrupt>
  10:	0c 94 3c 00 	jmp	0x78	; 0x78 <__bad_interrupt>
  14:	0c 94 3c 00 	jmp	0x78	; 0x78 <__bad_interrupt>
  18:	0c 94 3c 00 	jmp	0x78	; 0x78 <__bad_interrupt>
  1c:	0c 94 3c 00 	jmp	0x78	; 0x78 <__bad_interrupt>
  20:	0c 94 3c 00 	jmp	0x78	; 0x78 <__bad_interrupt>
  24:	0c 94 3c 00 	jmp	0x78	; 0x78 <__bad_interrupt>
  28:	0c 94 5e 00 	jmp	0xbc	; 0xbc <__vector_10>
  2c:	0c 94 3c 00 	jmp	0x78	; 0x78 <__bad_interrupt>
  30:	0c 94 3c 00 	jmp	0x78	; 0x78 <__bad_interrupt>
  34:	0c 94 3c 00 	jmp	0x78	; 0x78 <__bad_interrupt>
  38:	0c 94 3c 00 	jmp	0x78	; 0x78 <__bad_interrupt>
  3c:	0c 94 3c 00 	jmp	0x78	; 0x78 <__bad_interrupt>
  40:	0c 94 3c 00 	jmp	0x78	; 0x78 <__bad_interrupt>
  44:	0c 94 3c 00 	jmp	0x78	; 0x78 <__bad_interrupt>
  48:	0c 94 3c 00 	jmp	0x78	; 0x78 <__bad_interrupt>
  4c:	0c 94 3c 00 	jmp	0x78	; 0x78 <__bad_interrupt>
  50:	0c 94 3c 00 	jmp	0x78	; 0x78 <__bad_interrupt>

00000054 <__ctors_end>:
  54:	11 24       	eor	r1, r1
  56:	1f be       	out	0x3f, r1	; 63
  58:	cf e5       	ldi	r28, 0x5F	; 95
  5a:	d8 e0       	ldi	r29, 0x08	; 8
  5c:	de bf       	out	0x3e, r29	; 62
  5e:	cd bf       	out	0x3d, r28	; 61

00000060 <__do_clear_bss>:
  60:	10 e0       	ldi	r17, 0x00	; 0
  62:	a0 e6       	ldi	r26, 0x60	; 96
  64:	b0 e0       	ldi	r27, 0x00	; 0
  66:	01 c0       	rjmp	.+2      	; 0x6a <.do_clear_bss_start>

00000068 <.do_clear_bss_loop>:
  68:	1d 92       	st	X+, r1

0000006a <.do_clear_bss_start>:
  6a:	a1 36       	cpi	r26, 0x61	; 97
  6c:	b1 07       	cpc	r27, r17
  6e:	e1 f7       	brne	.-8      	; 0x68 <.do_clear_bss_loop>
  70:	0e 94 a7 00 	call	0x14e	; 0x14e <main>
  74:	0c 94 bc 00 	jmp	0x178	; 0x178 <_exit>

00000078 <__bad_interrupt>:
  78:	0c 94 00 00 	jmp	0	; 0x0 <__vectors>

0000007c <Timer0_init>:
#include<util/delay.h>
#include <avr/interrupt.h>

unsigned char tick=0;

void Timer0_init(void){
  7c:	df 93       	push	r29
  7e:	cf 93       	push	r28
  80:	cd b7       	in	r28, 0x3d	; 61
  82:	de b7       	in	r29, 0x3e	; 62
	TCCR0=(1<<7)|(1<<3)|(1<<CS01);
  84:	e3 e5       	ldi	r30, 0x53	; 83
  86:	f0 e0       	ldi	r31, 0x00	; 0
  88:	8a e8       	ldi	r24, 0x8A	; 138
  8a:	80 83       	st	Z, r24
	TCNT0=0;
  8c:	e2 e5       	ldi	r30, 0x52	; 82
  8e:	f0 e0       	ldi	r31, 0x00	; 0
  90:	10 82       	st	Z, r1
	OCR0=50;
  92:	ec e5       	ldi	r30, 0x5C	; 92
  94:	f0 e0       	ldi	r31, 0x00	; 0
  96:	82 e3       	ldi	r24, 0x32	; 50
  98:	80 83       	st	Z, r24
	TIMSK|=(1<<1);
  9a:	a9 e5       	ldi	r26, 0x59	; 89
  9c:	b0 e0       	ldi	r27, 0x00	; 0
  9e:	e9 e5       	ldi	r30, 0x59	; 89
  a0:	f0 e0       	ldi	r31, 0x00	; 0
  a2:	80 81       	ld	r24, Z
  a4:	82 60       	ori	r24, 0x02	; 2
  a6:	8c 93       	st	X, r24
	SREG|=(1<<7);
  a8:	af e5       	ldi	r26, 0x5F	; 95
  aa:	b0 e0       	ldi	r27, 0x00	; 0
  ac:	ef e5       	ldi	r30, 0x5F	; 95
  ae:	f0 e0       	ldi	r31, 0x00	; 0
  b0:	80 81       	ld	r24, Z
  b2:	80 68       	ori	r24, 0x80	; 128
  b4:	8c 93       	st	X, r24
}
  b6:	cf 91       	pop	r28
  b8:	df 91       	pop	r29
  ba:	08 95       	ret

000000bc <__vector_10>:


ISR(TIMER0_COMP_vect){
  bc:	1f 92       	push	r1
  be:	0f 92       	push	r0
  c0:	0f b6       	in	r0, 0x3f	; 63
  c2:	0f 92       	push	r0
  c4:	11 24       	eor	r1, r1
  c6:	8f 93       	push	r24
  c8:	9f 93       	push	r25
  ca:	af 93       	push	r26
  cc:	bf 93       	push	r27
  ce:	ef 93       	push	r30
  d0:	ff 93       	push	r31
  d2:	df 93       	push	r29
  d4:	cf 93       	push	r28
  d6:	cd b7       	in	r28, 0x3d	; 61
  d8:	de b7       	in	r29, 0x3e	; 62
	tick++;
  da:	80 91 60 00 	lds	r24, 0x0060
  de:	8f 5f       	subi	r24, 0xFF	; 255
  e0:	80 93 60 00 	sts	0x0060, r24
	PORTC^=(1<<PC0);
  e4:	a5 e3       	ldi	r26, 0x35	; 53
  e6:	b0 e0       	ldi	r27, 0x00	; 0
  e8:	e5 e3       	ldi	r30, 0x35	; 53
  ea:	f0 e0       	ldi	r31, 0x00	; 0
  ec:	90 81       	ld	r25, Z
  ee:	81 e0       	ldi	r24, 0x01	; 1
  f0:	89 27       	eor	r24, r25
  f2:	8c 93       	st	X, r24
	if(tick%2==0){
  f4:	80 91 60 00 	lds	r24, 0x0060
  f8:	88 2f       	mov	r24, r24
  fa:	90 e0       	ldi	r25, 0x00	; 0
  fc:	81 70       	andi	r24, 0x01	; 1
  fe:	90 70       	andi	r25, 0x00	; 0
 100:	00 97       	sbiw	r24, 0x00	; 0
 102:	41 f4       	brne	.+16     	; 0x114 <__vector_10+0x58>
		PORTC^=(1<<PC1);
 104:	a5 e3       	ldi	r26, 0x35	; 53
 106:	b0 e0       	ldi	r27, 0x00	; 0
 108:	e5 e3       	ldi	r30, 0x35	; 53
 10a:	f0 e0       	ldi	r31, 0x00	; 0
 10c:	90 81       	ld	r25, Z
 10e:	82 e0       	ldi	r24, 0x02	; 2
 110:	89 27       	eor	r24, r25
 112:	8c 93       	st	X, r24
	}
	if(tick%4==0){
 114:	80 91 60 00 	lds	r24, 0x0060
 118:	88 2f       	mov	r24, r24
 11a:	90 e0       	ldi	r25, 0x00	; 0
 11c:	83 70       	andi	r24, 0x03	; 3
 11e:	90 70       	andi	r25, 0x00	; 0
 120:	00 97       	sbiw	r24, 0x00	; 0
 122:	41 f4       	brne	.+16     	; 0x134 <__vector_10+0x78>
		PORTC^=(1<<PC2);
 124:	a5 e3       	ldi	r26, 0x35	; 53
 126:	b0 e0       	ldi	r27, 0x00	; 0
 128:	e5 e3       	ldi	r30, 0x35	; 53
 12a:	f0 e0       	ldi	r31, 0x00	; 0
 12c:	90 81       	ld	r25, Z
 12e:	84 e0       	ldi	r24, 0x04	; 4
 130:	89 27       	eor	r24, r25
 132:	8c 93       	st	X, r24
	}
}
 134:	cf 91       	pop	r28
 136:	df 91       	pop	r29
 138:	ff 91       	pop	r31
 13a:	ef 91       	pop	r30
 13c:	bf 91       	pop	r27
 13e:	af 91       	pop	r26
 140:	9f 91       	pop	r25
 142:	8f 91       	pop	r24
 144:	0f 90       	pop	r0
 146:	0f be       	out	0x3f, r0	; 63
 148:	0f 90       	pop	r0
 14a:	1f 90       	pop	r1
 14c:	18 95       	reti

0000014e <main>:


int main(void){
 14e:	df 93       	push	r29
 150:	cf 93       	push	r28
 152:	cd b7       	in	r28, 0x3d	; 61
 154:	de b7       	in	r29, 0x3e	; 62
	DDRC|=(1<<PC0)|(1<<PC1)|(1<<PC2);
 156:	a4 e3       	ldi	r26, 0x34	; 52
 158:	b0 e0       	ldi	r27, 0x00	; 0
 15a:	e4 e3       	ldi	r30, 0x34	; 52
 15c:	f0 e0       	ldi	r31, 0x00	; 0
 15e:	80 81       	ld	r24, Z
 160:	87 60       	ori	r24, 0x07	; 7
 162:	8c 93       	st	X, r24
	PORTC&=~0x07;
 164:	a5 e3       	ldi	r26, 0x35	; 53
 166:	b0 e0       	ldi	r27, 0x00	; 0
 168:	e5 e3       	ldi	r30, 0x35	; 53
 16a:	f0 e0       	ldi	r31, 0x00	; 0
 16c:	80 81       	ld	r24, Z
 16e:	88 7f       	andi	r24, 0xF8	; 248
 170:	8c 93       	st	X, r24
	Timer0_init();
 172:	0e 94 3e 00 	call	0x7c	; 0x7c <Timer0_init>
 176:	ff cf       	rjmp	.-2      	; 0x176 <main+0x28>

00000178 <_exit>:
 178:	f8 94       	cli

0000017a <__stop_program>:
 17a:	ff cf       	rjmp	.-2      	; 0x17a <__stop_program>
